target datalayout = "e-m:e-p270:32:32-p271:32:32-p272:64:64-i64:64-i128:128-f80:128-n8:16:32:64-S128"
target triple = "x86_64-pc-linux-gnu"

%struct.Kit_Sop_t_ = type { i32, i32, ptr }
%struct.Kit_Edge_t_ = type { i32 }

; Function Attrs: inlinehint nounwind uwtable
define internal i32 @Kit_SopCubeNum(ptr noundef %0) #2 {
  %2 = alloca ptr, align 8
  store ptr %0, ptr %2, align 8, !tbaa !10
  %3 = load ptr, ptr %2, align 8, !tbaa !10
  %4 = getelementptr inbounds nuw %struct.Kit_Sop_t_, ptr %3, i32 0, i32 1
  %5 = load i32, ptr %4, align 4, !tbaa !32
  ret i32 %5
}

; Function Attrs: nounwind uwtable
define internal i32 @Kit_SopFactorTrivialCube(ptr noundef %0, i32 noundef %1, i32 noundef %2) #0 {
  %4 = alloca %struct.Kit_Edge_t_, align 4
  %5 = alloca ptr, align 8
  %6 = alloca i32, align 4
  %7 = alloca i32, align 4
  store ptr %0, ptr %5, align 8, !tbaa !12
  store i32 %1, ptr %6, align 4, !tbaa !8
  store i32 %2, ptr %7, align 4, !tbaa !8
  %8 = load ptr, ptr %5, align 8, !tbaa !12
  %9 = load i32, ptr %6, align 4, !tbaa !8
  %10 = load i32, ptr %7, align 4, !tbaa !8
  %11 = call i32 @Kit_SopFactorTrivialCube_rec(ptr noundef %8, i32 noundef %9, i32 noundef 0, i32 noundef %10)
  %12 = getelementptr inbounds nuw %struct.Kit_Edge_t_, ptr %4, i32 0, i32 0
  store i32 %11, ptr %12, align 4
  %13 = getelementptr inbounds nuw %struct.Kit_Edge_t_, ptr %4, i32 0, i32 0
  %14 = load i32, ptr %13, align 4
  ret i32 %14
}

; Function Attrs: inlinehint nounwind uwtable
define internal i32 @Kit_SopCube(ptr noundef %0, i32 noundef %1) #2 {
  %3 = alloca ptr, align 8
  %4 = alloca i32, align 4
  store ptr %0, ptr %3, align 8, !tbaa !10
  store i32 %1, ptr %4, align 4, !tbaa !8
  %5 = load ptr, ptr %3, align 8, !tbaa !10
  %6 = getelementptr inbounds nuw %struct.Kit_Sop_t_, ptr %5, i32 0, i32 2
  %7 = load ptr, ptr %6, align 8, !tbaa !30
  %8 = load i32, ptr %4, align 4, !tbaa !8
  %9 = sext i32 %8 to i64
  %10 = getelementptr inbounds i32, ptr %7, i64 %9
  %11 = load i32, ptr %10, align 4, !tbaa !8
  ret i32 %11
}

; Function Attrs: nounwind uwtable
define internal i32 @Kit_SopFactorLF_rec(ptr noundef %0, ptr noundef %1, ptr noundef %2, i32 noundef %3, ptr noundef %4) #0 {
  %6 = alloca %struct.Kit_Edge_t_, align 4
  %7 = alloca ptr, align 8
  %8 = alloca ptr, align 8
  %9 = alloca ptr, align 8
  %10 = alloca i32, align 4
  %11 = alloca ptr, align 8
  %12 = alloca %struct.Kit_Sop_t_, align 8
  %13 = alloca %struct.Kit_Sop_t_, align 8
  %14 = alloca %struct.Kit_Sop_t_, align 8
  %15 = alloca ptr, align 8
  %16 = alloca ptr, align 8
  %17 = alloca ptr, align 8
  %18 = alloca %struct.Kit_Edge_t_, align 4
  %19 = alloca %struct.Kit_Edge_t_, align 4
  %20 = alloca %struct.Kit_Edge_t_, align 4
  %21 = alloca %struct.Kit_Edge_t_, align 4
  %22 = alloca %struct.Kit_Edge_t_, align 4
  %23 = alloca %struct.Kit_Edge_t_, align 4
  %24 = alloca %struct.Kit_Edge_t_, align 4
  %25 = alloca i32, align 4
  %26 = alloca %struct.Kit_Edge_t_, align 4
  store ptr %0, ptr %7, align 8, !tbaa !12
  store ptr %1, ptr %8, align 8, !tbaa !10
  store ptr %2, ptr %9, align 8, !tbaa !10
  store i32 %3, ptr %10, align 4, !tbaa !8
  store ptr %4, ptr %11, align 8, !tbaa !3
  call void @llvm.lifetime.start.p0(i64 16, ptr %12) #8
  call void @llvm.lifetime.start.p0(i64 16, ptr %13) #8
  call void @llvm.lifetime.start.p0(i64 16, ptr %14) #8
  call void @llvm.lifetime.start.p0(i64 8, ptr %15) #8
  store ptr %12, ptr %15, align 8, !tbaa !10
  call void @llvm.lifetime.start.p0(i64 8, ptr %16) #8
  store ptr %13, ptr %16, align 8, !tbaa !10
  call void @llvm.lifetime.start.p0(i64 8, ptr %17) #8
  store ptr %14, ptr %17, align 8, !tbaa !10
  call void @llvm.lifetime.start.p0(i64 4, ptr %18) #8
  call void @llvm.lifetime.start.p0(i64 4, ptr %19) #8
  call void @llvm.lifetime.start.p0(i64 4, ptr %20) #8
  call void @llvm.lifetime.start.p0(i64 4, ptr %21) #8
  %27 = load ptr, ptr %15, align 8, !tbaa !10
  %28 = load ptr, ptr %8, align 8, !tbaa !10
  %29 = load ptr, ptr %9, align 8, !tbaa !10
  %30 = call i32 @Kit_SopCube(ptr noundef %29, i32 noundef 0)
  %31 = load i32, ptr %10, align 4, !tbaa !8
  %32 = load ptr, ptr %11, align 8, !tbaa !3
  call void @Kit_SopBestLiteralCover(ptr noundef %27, ptr noundef %28, i32 noundef %30, i32 noundef %31, ptr noundef %32)
  %33 = load ptr, ptr %8, align 8, !tbaa !10
  %34 = load ptr, ptr %15, align 8, !tbaa !10
  %35 = load ptr, ptr %16, align 8, !tbaa !10
  %36 = load ptr, ptr %17, align 8, !tbaa !10
  %37 = load ptr, ptr %11, align 8, !tbaa !3
  call void @Kit_SopDivideByCube(ptr noundef %33, ptr noundef %34, ptr noundef %35, ptr noundef %36, ptr noundef %37)
  call void @llvm.lifetime.start.p0(i64 4, ptr %22) #8
  %38 = load ptr, ptr %7, align 8, !tbaa !12
  %39 = load ptr, ptr %15, align 8, !tbaa !10
  %40 = call i32 @Kit_SopCube(ptr noundef %39, i32 noundef 0)
  %41 = load i32, ptr %10, align 4, !tbaa !8
  %42 = call i32 @Kit_SopFactorTrivialCube(ptr noundef %38, i32 noundef %40, i32 noundef %41)
  %43 = getelementptr inbounds nuw %struct.Kit_Edge_t_, ptr %22, i32 0, i32 0
  store i32 %42, ptr %43, align 4
  call void @llvm.memcpy.p0.p0.i64(ptr align 4 %18, ptr align 4 %22, i64 4, i1 false), !tbaa.struct !14
  call void @llvm.lifetime.end.p0(i64 4, ptr %22) #8
  call void @llvm.lifetime.start.p0(i64 4, ptr %23) #8
  %44 = load ptr, ptr %7, align 8, !tbaa !12
  %45 = load ptr, ptr %16, align 8, !tbaa !10
  %46 = load i32, ptr %10, align 4, !tbaa !8
  %47 = load ptr, ptr %11, align 8, !tbaa !3
  %48 = call i32 @Kit_SopFactor_rec(ptr noundef %44, ptr noundef %45, i32 noundef %46, ptr noundef %47)
  %49 = getelementptr inbounds nuw %struct.Kit_Edge_t_, ptr %23, i32 0, i32 0
  store i32 %48, ptr %49, align 4
  call void @llvm.memcpy.p0.p0.i64(ptr align 4 %19, ptr align 4 %23, i64 4, i1 false), !tbaa.struct !14
  call void @llvm.lifetime.end.p0(i64 4, ptr %23) #8
  call void @llvm.lifetime.start.p0(i64 4, ptr %24) #8
  %50 = load ptr, ptr %7, align 8, !tbaa !12
  %51 = getelementptr inbounds nuw %struct.Kit_Edge_t_, ptr %18, i32 0, i32 0
  %52 = load i32, ptr %51, align 4
  %53 = getelementptr inbounds nuw %struct.Kit_Edge_t_, ptr %19, i32 0, i32 0
  %54 = load i32, ptr %53, align 4
  %55 = call i32 @Kit_GraphAddNodeAnd(ptr noundef %50, i32 %52, i32 %54)
  %56 = getelementptr inbounds nuw %struct.Kit_Edge_t_, ptr %24, i32 0, i32 0
  store i32 %55, ptr %56, align 4
  call void @llvm.memcpy.p0.p0.i64(ptr align 4 %21, ptr align 4 %24, i64 4, i1 false), !tbaa.struct !14
  call void @llvm.lifetime.end.p0(i64 4, ptr %24) #8
  %57 = load ptr, ptr %17, align 8, !tbaa !10
  %58 = call i32 @Kit_SopCubeNum(ptr noundef %57)
  %59 = icmp eq i32 %58, 0
  br i1 %59, label %60, label %61

60:                                               ; preds = %5
  call void @llvm.memcpy.p0.p0.i64(ptr align 4 %6, ptr align 4 %21, i64 4, i1 false), !tbaa.struct !14
  store i32 1, ptr %25, align 4
  br label %75

61:                                               ; preds = %5
  call void @llvm.lifetime.start.p0(i64 4, ptr %26) #8
  %62 = load ptr, ptr %7, align 8, !tbaa !12
  %63 = load ptr, ptr %17, align 8, !tbaa !10
  %64 = load i32, ptr %10, align 4, !tbaa !8
  %65 = load ptr, ptr %11, align 8, !tbaa !3
  %66 = call i32 @Kit_SopFactor_rec(ptr noundef %62, ptr noundef %63, i32 noundef %64, ptr noundef %65)
  %67 = getelementptr inbounds nuw %struct.Kit_Edge_t_, ptr %26, i32 0, i32 0
  store i32 %66, ptr %67, align 4
  call void @llvm.memcpy.p0.p0.i64(ptr align 4 %20, ptr align 4 %26, i64 4, i1 false), !tbaa.struct !14
  call void @llvm.lifetime.end.p0(i64 4, ptr %26) #8
  %68 = load ptr, ptr %7, align 8, !tbaa !12
  %69 = getelementptr inbounds nuw %struct.Kit_Edge_t_, ptr %21, i32 0, i32 0
  %70 = load i32, ptr %69, align 4
  %71 = getelementptr inbounds nuw %struct.Kit_Edge_t_, ptr %20, i32 0, i32 0
  %72 = load i32, ptr %71, align 4
  %73 = call i32 @Kit_GraphAddNodeOr(ptr noundef %68, i32 %70, i32 %72)
  %74 = getelementptr inbounds nuw %struct.Kit_Edge_t_, ptr %6, i32 0, i32 0
  store i32 %73, ptr %74, align 4
  store i32 1, ptr %25, align 4
  br label %75

75:                                               ; preds = %61, %60
  call void @llvm.lifetime.end.p0(i64 4, ptr %21) #8
  call void @llvm.lifetime.end.p0(i64 4, ptr %20) #8
  call void @llvm.lifetime.end.p0(i64 4, ptr %19) #8
  call void @llvm.lifetime.end.p0(i64 4, ptr %18) #8
  call void @llvm.lifetime.end.p0(i64 8, ptr %17) #8
  call void @llvm.lifetime.end.p0(i64 8, ptr %16) #8
  call void @llvm.lifetime.end.p0(i64 8, ptr %15) #8
  call void @llvm.lifetime.end.p0(i64 16, ptr %14) #8
  call void @llvm.lifetime.end.p0(i64 16, ptr %13) #8
  call void @llvm.lifetime.end.p0(i64 16, ptr %12) #8
  %76 = getelementptr inbounds nuw %struct.Kit_Edge_t_, ptr %6, i32 0, i32 0
  %77 = load i32, ptr %76, align 4
  ret i32 %77
}