; Function Attrs: nounwind uwtable
define internal fastcc i32 @Kit_SopFactorLF_rec(ptr noundef %0, ptr noundef nonnull %1, ptr noundef nonnull readonly captures(none) %2, i32 noundef %3, ptr noundef %4) unnamed_addr #0 {
  %6 = alloca %struct.Kit_Sop_t_, align 8
  %7 = alloca %struct.Kit_Sop_t_, align 8
  %8 = alloca %struct.Kit_Sop_t_, align 8
  call void @llvm.lifetime.start.p0(i64 16, ptr nonnull %6) #8
  call void @llvm.lifetime.start.p0(i64 16, ptr nonnull %7) #8
  call void @llvm.lifetime.start.p0(i64 16, ptr nonnull %8) #8
  %9 = getelementptr i8, ptr %2, i64 8
  %.val31 = load ptr, ptr %9, align 8, !tbaa !16
  %.val31.val = load i32, ptr %.val31, align 4, !tbaa !11
  call void @Kit_SopBestLiteralCover(ptr noundef nonnull %6, ptr noundef nonnull %1, i32 noundef %.val31.val, i32 noundef %3, ptr noundef %4) #8
  call void @Kit_SopDivideByCube(ptr noundef nonnull %1, ptr noundef nonnull %6, ptr noundef nonnull %7, ptr noundef nonnull %8, ptr noundef %4) #8
  %10 = getelementptr inbounds nuw i8, ptr %6, i64 8
  %.val32 = load ptr, ptr %10, align 8, !tbaa !16
  %.val32.val = load i32, ptr %.val32, align 4, !tbaa !11
  %11 = call i32 @Kit_SopFactorTrivialCube_rec(ptr noundef %0, i32 noundef %.val32.val, i32 noundef 0, i32 noundef %3)
  %12 = call fastcc i32 @Kit_SopFactor_rec(ptr noundef %0, ptr noundef %7, i32 noundef %3, ptr noundef %4)
  %13 = call i32 @Kit_GraphAddNodeAnd(ptr noundef %0, i32 %11, i32 %12) #8
  %14 = getelementptr inbounds nuw i8, ptr %8, i64 4
  %.val = load i32, ptr %14, align 4, !tbaa !14
  %15 = icmp eq i32 %.val, 0
  br i1 %15, label %19, label %16

16:                                               ; preds = %5
  %17 = call fastcc i32 @Kit_SopFactor_rec(ptr noundef %0, ptr noundef %8, i32 noundef %3, ptr noundef %4)
  %18 = call i32 @Kit_GraphAddNodeOr(ptr noundef %0, i32 %13, i32 %17) #8
  br label %19

19:                                               ; preds = %5, %16
  %.sroa.030.0 = phi i32 [ %18, %16 ], [ %13, %5 ]
  call void @llvm.lifetime.end.p0(i64 16, ptr nonnull %8) #8
  call void @llvm.lifetime.end.p0(i64 16, ptr nonnull %7) #8
  call void @llvm.lifetime.end.p0(i64 16, ptr nonnull %6) #8
  ret i32 %.sroa.030.0
}